; Function Attrs: mustprogress nounwind uwtable
define hidden noundef ptr @_Z32_hb_ot_name_language_for_ms_codej(i32 noundef %0) local_unnamed_addr #0 {
  br label %2

2:                                                ; preds = %16, %1
  %.0216.i.i.i = phi i32 [ 0, %1 ], [ %.223.i.i.i, %16 ]
  %.0245.i.i.i = phi i32 [ 239, %1 ], [ %.226.i.i.i, %16 ]
  %3 = add i32 %.0245.i.i.i, %.0216.i.i.i
  %4 = lshr i32 %3, 1
  %5 = zext nneg i32 %4 to i64
  %6 = shl nuw nsw i64 %5, 3
  %7 = getelementptr inbounds nuw i8, ptr @_ZL19_hb_ms_language_map, i64 %6
  %8 = load i16, ptr %7, align 8, !tbaa !4
  %9 = zext i16 %8 to i32
  %10 = icmp ult i32 %0, %9
  br i1 %10, label %11, label %13

11:                                               ; preds = %2
  %12 = add nsw i32 %4, -1
  br label %16

13:                                               ; preds = %2
  %.not28.i.i.i = icmp eq i32 %0, %9
  br i1 %.not28.i.i.i, label %_ZL10hb_bsearchIK20hb_ot_language_map_tjEPT_RKT0_S3_mmPFiPKvS8_E.exit.i, label %14

14:                                               ; preds = %13
  %15 = add nuw nsw i32 %4, 1
  br label %16

16:                                               ; preds = %14, %11
  %.226.i.i.i = phi i32 [ %12, %11 ], [ %.0245.i.i.i, %14 ]
  %.223.i.i.i = phi i32 [ %.0216.i.i.i, %11 ], [ %15, %14 ]
  %.not.not.i.i.i = icmp sgt i32 %.223.i.i.i, %.226.i.i.i
  br i1 %.not.not.i.i.i, label %_ZL24_hb_ot_name_language_forjPK20hb_ot_language_map_tj.exit, label %2, !llvm.loop !9

_ZL10hb_bsearchIK20hb_ot_language_map_tjEPT_RKT0_S3_mmPFiPKvS8_E.exit.i: ; preds = %13
  %17 = getelementptr inbounds nuw i8, ptr @_ZL19_hb_ms_language_map, i64 %6
  %18 = getelementptr inbounds nuw i8, ptr %17, i64 2
  %19 = tail call ptr @hb_language_from_string(ptr noundef nonnull %18, i32 noundef -1) #13
  br label %_ZL24_hb_ot_name_language_forjPK20hb_ot_language_map_tj.exit

_ZL24_hb_ot_name_language_forjPK20hb_ot_language_map_tj.exit: ; preds = %16, %_ZL10hb_bsearchIK20hb_ot_language_map_tjEPT_RKT0_S3_mmPFiPKvS8_E.exit.i
  %.0.i = phi ptr [ %19, %_ZL10hb_bsearchIK20hb_ot_language_map_tjEPT_RKT0_S3_mmPFiPKvS8_E.exit.i ], [ null, %16 ]
  ret ptr %.0.i
}